Certificate:
    Data:
        Version: 3 (0x2)
        Serial Number: 2 (0x2)
    Signature Algorithm: sha256WithRSAEncryption
        Issuer: CN=admin
        Validity
            Not Before: Oct 13 21:33:22 2020 GMT
            Not After : Oct 11 21:33:22 2030 GMT
        Subject: CN=posesco
        Subject Public Key Info:
            Public Key Algorithm: rsaEncryption
                Public-Key: (2048 bit)
                Modulus:
                    00:d2:1c:35:22:11:59:8e:4b:d7:86:87:7d:bd:e0:
                    2b:62:98:34:26:d3:40:fc:31:b2:68:7f:9e:27:c8:
                    81:9c:cd:cc:c3:50:62:68:22:94:e8:d9:a5:81:ed:
                    7a:99:d0:6e:5a:71:2c:3a:4c:10:e6:cf:04:7e:0c:
                    0d:57:5c:06:91:c4:9d:cb:0d:35:f6:8e:ad:83:b1:
                    4d:ac:aa:e6:92:65:2c:2b:9f:57:70:8f:d5:ee:92:
                    0e:1c:8b:41:87:7f:14:62:7e:97:28:6f:80:a5:88:
                    05:25:ee:b9:b8:9d:f0:f7:4f:14:4c:e1:9c:e0:77:
                    90:6d:e3:22:da:86:32:35:74:fa:ca:2d:fb:d1:8b:
                    88:00:37:97:1f:2f:bf:1c:98:4e:8e:e2:80:c8:a8:
                    61:1e:62:06:ce:fd:9c:5a:09:65:b3:7b:97:f3:21:
                    13:45:9f:bf:9b:6c:4d:e7:c8:78:be:0d:24:34:8a:
                    5d:6a:26:c1:3a:aa:60:ba:2c:57:bf:30:88:78:b3:
                    5d:19:9a:c9:02:84:29:19:ac:09:f7:ef:7c:3d:5b:
                    69:e2:d4:17:71:d7:71:b0:67:66:79:01:41:8c:46:
                    2a:db:48:47:4e:12:37:0e:0a:e1:14:84:37:cd:15:
                    47:9d:31:58:7b:d0:9c:23:16:d1:33:3c:00:73:72:
                    27:95
                Exponent: 65537 (0x10001)
        X509v3 extensions:
            X509v3 Basic Constraints: 
                CA:FALSE
            X509v3 Subject Key Identifier: 
                CC:56:85:20:95:8F:ED:93:41:62:48:13:E7:31:12:90:4A:02:5D:55
            X509v3 Authority Key Identifier: 
                keyid:C3:18:BC:7E:56:CA:AF:4E:23:6A:15:B8:7E:80:3E:E5:DE:A0:1A:41
                DirName:/CN=admin
                serial:B9:1D:E2:96:7D:A2:E8:69

            X509v3 Extended Key Usage: 
                TLS Web Client Authentication
            X509v3 Key Usage: 
                Digital Signature
    Signature Algorithm: sha256WithRSAEncryption
         0d:47:21:d5:f7:f9:d6:98:c3:85:7b:74:fa:ba:a9:e3:86:37:
         ba:cd:b9:38:39:32:11:6a:11:79:15:dd:a0:48:a6:12:bc:b9:
         3f:23:02:f6:b0:cb:7f:27:15:ea:ee:24:9e:ea:da:49:07:23:
         eb:75:c7:37:41:20:80:a4:7e:1b:34:b5:bc:c4:78:4c:5f:a7:
         98:e3:60:a1:40:dc:70:a1:89:23:b8:be:59:20:01:19:a8:44:
         26:fc:e3:97:2a:08:2d:ed:de:c3:fb:b2:54:7f:d4:21:8d:1d:
         79:dc:3b:73:68:cc:84:db:5e:bd:cf:27:62:81:7d:4f:10:93:
         8b:f9:d3:d5:dc:80:92:a3:17:37:72:d7:45:cb:b3:33:87:15:
         1c:41:a9:78:04:2a:4f:91:37:0a:41:2d:c1:23:00:69:65:4f:
         d9:01:1d:81:34:07:f4:ff:a7:a1:4e:73:fb:af:a0:92:e8:63:
         71:27:2d:2c:63:5b:b9:e2:cd:f2:03:cb:0f:00:9e:0d:c0:a6:
         e4:13:c7:19:cf:19:24:39:e7:51:20:41:d6:72:f2:5e:87:8b:
         42:38:9d:00:11:f9:b4:f0:e7:32:94:81:54:a8:73:29:c5:6a:
         90:1a:56:c1:58:8a:13:17:82:aa:4c:57:01:a3:ff:bb:f3:e4:
         4c:96:52:b3
-----BEGIN CERTIFICATE-----
MIIDLzCCAhegAwIBAgIBAjANBgkqhkiG9w0BAQsFADAQMQ4wDAYDVQQDDAVhZG1p
bjAeFw0yMDEwMTMyMTMzMjJaFw0zMDEwMTEyMTMzMjJaMBIxEDAOBgNVBAMMB3Bv
c2VzY28wggEiMA0GCSqGSIb3DQEBAQUAA4IBDwAwggEKAoIBAQDSHDUiEVmOS9eG
h3294CtimDQm00D8MbJof54nyIGczczDUGJoIpTo2aWB7XqZ0G5acSw6TBDmzwR+
DA1XXAaRxJ3LDTX2jq2DsU2squaSZSwrn1dwj9Xukg4ci0GHfxRifpcob4CliAUl
7rm4nfD3TxRM4Zzgd5Bt4yLahjI1dPrKLfvRi4gAN5cfL78cmE6O4oDIqGEeYgbO
/ZxaCWWze5fzIRNFn7+bbE3nyHi+DSQ0il1qJsE6qmC6LFe/MIh4s10ZmskChCkZ
rAn373w9W2ni1Bdx13GwZ2Z5AUGMRirbSEdOEjcOCuEUhDfNFUedMVh70JwjFtEz
PABzcieVAgMBAAGjgZEwgY4wCQYDVR0TBAIwADAdBgNVHQ4EFgQUzFaFIJWP7ZNB
YkgT5zESkEoCXVUwQAYDVR0jBDkwN4AUwxi8flbKr04jahW4foA+5d6gGkGhFKQS
MBAxDjAMBgNVBAMMBWFkbWluggkAuR3iln2i6GkwEwYDVR0lBAwwCgYIKwYBBQUH
AwIwCwYDVR0PBAQDAgeAMA0GCSqGSIb3DQEBCwUAA4IBAQANRyHV9/nWmMOFe3T6
uqnjhje6zbk4OTIRahF5Fd2gSKYSvLk/IwL2sMt/JxXq7iSe6tpJByPrdcc3QSCA
pH4bNLW8xHhMX6eY42ChQNxwoYkjuL5ZIAEZqEQm/OOXKggt7d7D+7JUf9QhjR15
3DtzaMyE2169zydigX1PEJOL+dPV3ICSoxc3ctdFy7MzhxUcQal4BCpPkTcKQS3B
IwBpZU/ZAR2BNAf0/6ehTnP7r6CS6GNxJy0sY1u54s3yA8sPAJ4NwKbkE8cZzxkk
OedRIEHWcvJeh4tCOJ0AEfm08OcylIFUqHMpxWqQGlbBWIoTF4KqTFcBo/+78+RM
llKz
-----END CERTIFICATE-----
